target datalayout = "e-m:e-p270:32:32-p271:32:32-p272:64:64-i64:64-i128:128-f80:128-n8:16:32:64-S128"
target triple = "x86_64-pc-linux-gnu"

%struct.linger = type { i32, i32 }

@rb_cSockOpt = global i64 0, align 8
@.str.101 = private unnamed_addr constant [7 x i8] c"to_int\00", align 1

; Function Attrs: inlinehint nounwind sspstrong willreturn memory(none) uwtable
define internal i64 @RB_INT2FIX(i64 noundef %0) #7 {
  %2 = alloca i64, align 8
  %3 = alloca i64, align 8
  %4 = alloca i64, align 8
  %5 = alloca i64, align 8
  %6 = alloca i64, align 8
  %7 = alloca i64, align 8
  store i64 %0, ptr %2, align 8, !tbaa !10
  call void @llvm.lifetime.start.p0(i64 8, ptr %3) #17
  %8 = load i64, ptr %2, align 8, !tbaa !10
  store i64 %8, ptr %3, align 8, !tbaa !10
  call void @llvm.lifetime.start.p0(i64 8, ptr %4) #17
  %9 = load i64, ptr %3, align 8, !tbaa !10
  %10 = shl i64 %9, 1
  %11 = add i64 %10, 1
  store i64 %11, ptr %4, align 8, !tbaa !10
  call void @llvm.lifetime.start.p0(i64 8, ptr %5) #17
  %12 = load i64, ptr %4, align 8, !tbaa !10
  store i64 %12, ptr %5, align 8, !tbaa !10
  call void @llvm.lifetime.start.p0(i64 8, ptr %6) #17
  %13 = load i64, ptr %5, align 8, !tbaa !10
  store i64 %13, ptr %6, align 8, !tbaa !10
  call void @llvm.lifetime.start.p0(i64 8, ptr %7) #17
  %14 = load i64, ptr %6, align 8, !tbaa !10
  store i64 %14, ptr %7, align 8, !tbaa !10
  %15 = load i64, ptr %7, align 8, !tbaa !10
  call void @llvm.lifetime.end.p0(i64 8, ptr %7) #17
  call void @llvm.lifetime.end.p0(i64 8, ptr %6) #17
  call void @llvm.lifetime.end.p0(i64 8, ptr %5) #17
  call void @llvm.lifetime.end.p0(i64 8, ptr %4) #17
  call void @llvm.lifetime.end.p0(i64 8, ptr %3) #17
  ret i64 %15
}

; Function Attrs: inlinehint nounwind sspstrong uwtable
define internal i64 @rb_int2num_inline(i32 noundef %0) #3 {
  %2 = alloca i64, align 8
  %3 = alloca i32, align 4
  store i32 %0, ptr %3, align 4, !tbaa !6
  %4 = load i32, ptr %3, align 4, !tbaa !6
  %5 = sext i32 %4 to i64
  %6 = icmp slt i64 %5, 4611686018427387904
  br i1 %6, label %7, label %15

7:                                                ; preds = %1
  %8 = load i32, ptr %3, align 4, !tbaa !6
  %9 = sext i32 %8 to i64
  %10 = icmp sge i64 %9, -4611686018427387904
  br i1 %10, label %11, label %15

11:                                               ; preds = %7
  %12 = load i32, ptr %3, align 4, !tbaa !6
  %13 = sext i32 %12 to i64
  %14 = call i64 @RB_INT2FIX(i64 noundef %13) #19
  store i64 %14, ptr %2, align 8
  br label %19

15:                                               ; preds = %7, %1
  %16 = load i32, ptr %3, align 4, !tbaa !6
  %17 = sext i32 %16 to i64
  %18 = call i64 @rb_int2big(i64 noundef %17)
  store i64 %18, ptr %2, align 8
  br label %19

19:                                               ; preds = %15, %11
  %20 = load i64, ptr %2, align 8
  ret i64 %20
}

; Function Attrs: inlinehint nounwind sspstrong willreturn memory(none) uwtable
define internal zeroext i1 @RB_FIXNUM_P(i64 noundef %0) #7 {
  %2 = alloca i64, align 8
  store i64 %0, ptr %2, align 8, !tbaa !10
  %3 = load i64, ptr %2, align 8, !tbaa !10
  %4 = and i64 %3, 1
  %5 = icmp ne i64 %4, 0
  ret i1 %5
}

; Function Attrs: nounwind sspstrong uwtable
define i64 @rsock_sockopt_new(i32 noundef %0, i32 noundef %1, i32 noundef %2, i64 noundef %3) #0 {
  %5 = alloca i32, align 4
  %6 = alloca i32, align 4
  %7 = alloca i32, align 4
  %8 = alloca i64, align 8
  %9 = alloca i64, align 8
  store i32 %0, ptr %5, align 4, !tbaa !6
  store i32 %1, ptr %6, align 4, !tbaa !6
  store i32 %2, ptr %7, align 4, !tbaa !6
  store i64 %3, ptr %8, align 8, !tbaa !10
  call void @llvm.lifetime.start.p0(i64 8, ptr %9) #17
  %10 = load i64, ptr @rb_cSockOpt, align 8, !tbaa !10
  %11 = call i64 @rb_obj_alloc(i64 noundef %10)
  store i64 %11, ptr %9, align 8, !tbaa !10
  %12 = call i64 @rb_string_value(ptr noundef %8)
  %13 = load i64, ptr %9, align 8, !tbaa !10
  %14 = load i32, ptr %5, align 4, !tbaa !6
  %15 = call i64 @rb_int2num_inline(i32 noundef %14)
  %16 = load i32, ptr %6, align 4, !tbaa !6
  %17 = call i64 @rb_int2num_inline(i32 noundef %16)
  %18 = load i32, ptr %7, align 4, !tbaa !6
  %19 = call i64 @rb_int2num_inline(i32 noundef %18)
  %20 = load i64, ptr %8, align 8, !tbaa !10
  %21 = call i64 @sockopt_initialize(i64 noundef %13, i64 noundef %15, i64 noundef %17, i64 noundef %19, i64 noundef %20)
  %22 = load i64, ptr %9, align 8, !tbaa !10
  call void @llvm.lifetime.end.p0(i64 8, ptr %9) #17
  ret i64 %22
}

; Function Attrs: inlinehint nounwind sspstrong willreturn memory(none) uwtable
define internal zeroext i1 @RB_TEST(i64 noundef %0) #7 {
  %2 = alloca i64, align 8
  store i64 %0, ptr %2, align 8, !tbaa !10
  %3 = load i64, ptr %2, align 8, !tbaa !10
  %4 = and i64 %3, -5
  %5 = icmp ne i64 %4, 0
  ret i1 %5
}

; Function Attrs: inlinehint nounwind sspstrong uwtable
define internal i32 @rb_num2int_inline(i64 noundef %0) #3 {
  %2 = alloca i64, align 8
  %3 = alloca i64, align 8
  store i64 %0, ptr %2, align 8, !tbaa !10
  call void @llvm.lifetime.start.p0(i64 8, ptr %3) #17
  %4 = load i64, ptr %2, align 8, !tbaa !10
  %5 = call zeroext i1 @RB_FIXNUM_P(i64 noundef %4) #19
  br i1 %5, label %6, label %9

6:                                                ; preds = %1
  %7 = load i64, ptr %2, align 8, !tbaa !10
  %8 = call i64 @rb_fix2int(i64 noundef %7)
  store i64 %8, ptr %3, align 8, !tbaa !10
  br label %12

9:                                                ; preds = %1
  %10 = load i64, ptr %2, align 8, !tbaa !10
  %11 = call i64 @rb_num2int(i64 noundef %10)
  store i64 %11, ptr %3, align 8, !tbaa !10
  br label %12

12:                                               ; preds = %9, %6
  %13 = load i64, ptr %3, align 8, !tbaa !10
  %14 = trunc i64 %13 to i32
  call void @llvm.lifetime.end.p0(i64 8, ptr %3) #17
  ret i32 %14
}

; Function Attrs: inlinehint nounwind sspstrong willreturn memory(none) uwtable
define internal zeroext i1 @RB_NIL_P(i64 noundef %0) #7 {
  %2 = alloca i64, align 8
  store i64 %0, ptr %2, align 8, !tbaa !10
  %3 = load i64, ptr %2, align 8, !tbaa !10
  %4 = icmp eq i64 %3, 4
  ret i1 %4
}

; Function Attrs: alwaysinline nounwind
define internal ptr @memset.inline(ptr nonnull %0, i32 %1, i64 %2) #8 {
  %4 = alloca ptr, align 8
  %5 = alloca i32, align 4
  %6 = alloca i64, align 8
  store ptr %0, ptr %4, align 8, !tbaa !64
  store i32 %1, ptr %5, align 4, !tbaa !6
  store i64 %2, ptr %6, align 8, !tbaa !10
  %7 = load ptr, ptr %4, align 8, !tbaa !64
  %8 = load i32, ptr %5, align 4, !tbaa !6
  %9 = load i64, ptr %6, align 8, !tbaa !10
  %10 = load ptr, ptr %4, align 8, !tbaa !64
  %11 = call i64 @llvm.objectsize.i64.p0(ptr %10, i1 false, i1 true, i1 false)
  %12 = call ptr @__memset_chk(ptr noundef %7, i32 noundef %8, i64 noundef %9, i64 noundef %11) #17
  ret ptr %12
}

; Function Attrs: nounwind sspstrong uwtable
define internal i64 @sockopt_s_linger(i64 noundef %0, i64 noundef %1, i64 noundef %2) #0 {
  %4 = alloca i64, align 8
  %5 = alloca i64, align 8
  %6 = alloca i64, align 8
  %7 = alloca i64, align 8
  %8 = alloca %struct.linger, align 4
  store i64 %0, ptr %4, align 8, !tbaa !10
  store i64 %1, ptr %5, align 8, !tbaa !10
  store i64 %2, ptr %6, align 8, !tbaa !10
  call void @llvm.lifetime.start.p0(i64 8, ptr %7) #17
  call void @llvm.lifetime.start.p0(i64 8, ptr %8) #17
  %9 = call ptr @memset.inline(ptr noundef %8, i32 noundef 0, i64 noundef 8) #17
  %10 = load i64, ptr %5, align 8, !tbaa !10
  %11 = call i64 @rb_check_to_integer(i64 noundef %10, ptr noundef @.str.101)
  store i64 %11, ptr %7, align 8, !tbaa !10
  %12 = call zeroext i1 @RB_NIL_P(i64 noundef %11) #19
  br i1 %12, label %17, label %13

13:                                               ; preds = %3
  %14 = load i64, ptr %7, align 8, !tbaa !10
  %15 = call i32 @rb_num2int_inline(i64 noundef %14)
  %16 = getelementptr inbounds nuw %struct.linger, ptr %8, i32 0, i32 0
  store i32 %15, ptr %16, align 4, !tbaa !13
  br label %22

17:                                               ; preds = %3
  %18 = load i64, ptr %5, align 8, !tbaa !10
  %19 = call zeroext i1 @RB_TEST(i64 noundef %18) #19
  %20 = select i1 %19, i32 1, i32 0
  %21 = getelementptr inbounds nuw %struct.linger, ptr %8, i32 0, i32 0
  store i32 %20, ptr %21, align 4, !tbaa !13
  br label %22

22:                                               ; preds = %17, %13
  %23 = load i64, ptr %6, align 8, !tbaa !10
  %24 = call i32 @rb_num2int_inline(i64 noundef %23)
  %25 = getelementptr inbounds nuw %struct.linger, ptr %8, i32 0, i32 1
  store i32 %24, ptr %25, align 4, !tbaa !15
  br i1 false, label %26, label %27

26:                                               ; preds = %22
  br label %27

27:                                               ; preds = %26, %22
  %28 = phi i1 [ false, %22 ], [ true, %26 ]
  %29 = select i1 %28, ptr @rb_str_new_static, ptr @rb_str_new
  %30 = call i64 %29(ptr noundef %8, i64 noundef 8)
  %31 = call i64 @rsock_sockopt_new(i32 noundef 0, i32 noundef 1, i32 noundef 13, i64 noundef %30)
  call void @llvm.lifetime.end.p0(i64 8, ptr %8) #17
  call void @llvm.lifetime.end.p0(i64 8, ptr %7) #17
  ret i64 %31
}