; Function Attrs: nounwind sspstrong uwtable
define internal i64 @sockopt_s_linger(i64 %0, i64 noundef %1, i64 noundef %2) #0 {
  %4 = alloca i64, align 8
  %5 = alloca %struct.linger, align 4
  call void @llvm.lifetime.start.p0(i64 8, ptr nonnull %5) #6
  %6 = tail call i64 @rb_check_to_integer(i64 noundef %1, ptr noundef nonnull @.str.101) #6
  %7 = icmp eq i64 %6, 4
  br i1 %7, label %15, label %8

8:                                                ; preds = %3
  %9 = and i64 %6, 1
  %.not.i = icmp eq i64 %9, 0
  br i1 %.not.i, label %12, label %10

10:                                               ; preds = %8
  %11 = tail call i64 @rb_fix2int(i64 noundef %6) #6
  br label %rb_num2int_inline.exit

12:                                               ; preds = %8
  %13 = tail call i64 @rb_num2int(i64 noundef %6) #6
  br label %rb_num2int_inline.exit

rb_num2int_inline.exit:                           ; preds = %10, %12
  %.0.i = phi i64 [ %11, %10 ], [ %13, %12 ]
  %14 = trunc i64 %.0.i to i32
  br label %19

15:                                               ; preds = %3
  %16 = and i64 %1, -5
  %17 = icmp ne i64 %16, 0
  %18 = zext i1 %17 to i32
  br label %19

19:                                               ; preds = %15, %rb_num2int_inline.exit
  %storemerge = phi i32 [ %14, %rb_num2int_inline.exit ], [ %18, %15 ]
  store i32 %storemerge, ptr %5, align 4, !tbaa !92
  %20 = and i64 %2, 1
  %.not.i4 = icmp eq i64 %20, 0
  br i1 %.not.i4, label %23, label %21

21:                                               ; preds = %19
  %22 = tail call i64 @rb_fix2int(i64 noundef %2) #6
  br label %rb_num2int_inline.exit6

23:                                               ; preds = %19
  %24 = tail call i64 @rb_num2int(i64 noundef %2) #6
  br label %rb_num2int_inline.exit6

rb_num2int_inline.exit6:                          ; preds = %21, %23
  %.0.i5 = phi i64 [ %22, %21 ], [ %24, %23 ]
  %25 = trunc i64 %.0.i5 to i32
  %26 = getelementptr inbounds nuw i8, ptr %5, i64 4
  store i32 %25, ptr %26, align 4, !tbaa !94
  %27 = call i64 @rb_str_new(ptr noundef nonnull %5, i64 noundef 8) #6
  call void @llvm.lifetime.start.p0(i64 8, ptr nonnull %4)
  store i64 %27, ptr %4, align 8, !tbaa !6
  %28 = load i64, ptr @rb_cSockOpt, align 8, !tbaa !6
  %29 = call i64 @rb_obj_alloc(i64 noundef %28) #6
  %30 = call i64 @rb_string_value(ptr noundef nonnull %4) #6
  %31 = load i64, ptr %4, align 8, !tbaa !6
  %32 = call i64 @sockopt_initialize(i64 noundef %29, i64 noundef 1, i64 noundef 3, i64 noundef 27, i64 noundef %31)
  call void @llvm.lifetime.end.p0(i64 8, ptr nonnull %4)
  call void @llvm.lifetime.end.p0(i64 8, ptr nonnull %5) #6
  ret i64 %29
}